target datalayout = "e-m:e-p270:32:32-p271:32:32-p272:64:64-i64:64-i128:128-f80:128-n8:16:32:64-S128"
target triple = "x86_64-pc-linux-gnu"

%"struct.std::_Rb_tree_iterator" = type { ptr }
%"class.base::StatisticsRecorder::HistogramIterator" = type <{ %"struct.std::_Rb_tree_iterator", i8, [7 x i8] }>
%"class.std::map" = type { %"class.std::_Rb_tree" }
%"class.std::_Rb_tree" = type { %"struct.std::_Rb_tree<base::StatisticsRecorder::StringKey, std::pair<const base::StatisticsRecorder::StringKey, base::HistogramBase *>, std::_Select1st<std::pair<const base::StatisticsRecorder::StringKey, base::HistogramBase *>>, std::less<base::StatisticsRecorder::StringKey>>::_Rb_tree_impl" }
%"struct.std::_Rb_tree<base::StatisticsRecorder::StringKey, std::pair<const base::StatisticsRecorder::StringKey, base::HistogramBase *>, std::_Select1st<std::pair<const base::StatisticsRecorder::StringKey, base::HistogramBase *>>, std::less<base::StatisticsRecorder::StringKey>>::_Rb_tree_impl" = type { [8 x i8], %"struct.std::_Rb_tree_header" }
%"struct.std::_Rb_tree_header" = type { %"struct.std::_Rb_tree_node_base", i64 }
%"struct.std::_Rb_tree_node_base" = type { i32, ptr, ptr, ptr }
%"class.base::AutoLock" = type { ptr }
%"class.base::Lock" = type { %"class.base::internal::LockImpl" }
%"class.base::internal::LockImpl" = type { %union.pthread_mutex_t }
%union.pthread_mutex_t = type { %struct.__pthread_mutex_s }
%struct.__pthread_mutex_s = type { i32, i32, i32, i32, i32, i16, i16, %struct.__pthread_internal_list }
%struct.__pthread_internal_list = type { ptr, ptr }

@_ZN4base18StatisticsRecorder11histograms_E = global ptr null, align 8
@_ZN4base18StatisticsRecorder5lock_E = global ptr null, align 8
@_ZN4base18StatisticsRecorder17HistogramIteratorC1ERKSt17_Rb_tree_iteratorISt4pairIKNS0_9StringKeyEPNS_13HistogramBaseEEEb = unnamed_addr alias void (ptr, ptr, i1), ptr @_ZN4base18StatisticsRecorder17HistogramIteratorC2ERKSt17_Rb_tree_iteratorISt4pairIKNS0_9StringKeyEPNS_13HistogramBaseEEEb

; Function Attrs: mustprogress nounwind uwtable
define linkonce_odr void @_ZNSt17_Rb_tree_iteratorISt4pairIKN4base18StatisticsRecorder9StringKeyEPNS1_13HistogramBaseEEEC2EPSt18_Rb_tree_node_base(ptr noundef nonnull align 8 dereferenceable(8) %0, ptr noundef %1) unnamed_addr #2 comdat align 2 {
  %3 = alloca ptr, align 8
  %4 = alloca ptr, align 8
  store ptr %0, ptr %3, align 8, !tbaa !8
  store ptr %1, ptr %4, align 8, !tbaa !13
  %5 = load ptr, ptr %3, align 8
  %6 = getelementptr inbounds nuw %"struct.std::_Rb_tree_iterator", ptr %5, i32 0, i32 0
  %7 = load ptr, ptr %4, align 8, !tbaa !13
  store ptr %7, ptr %6, align 8, !tbaa !29
  ret void
}

; Function Attrs: mustprogress uwtable
define linkonce_odr void @_ZN4base4Lock7ReleaseEv(ptr noundef nonnull align 8 dereferenceable(40) %0) #0 comdat align 2 {
  %2 = alloca ptr, align 8
  store ptr %0, ptr %2, align 8, !tbaa !31
  %3 = load ptr, ptr %2, align 8
  %4 = getelementptr inbounds nuw %"class.base::Lock", ptr %3, i32 0, i32 0
  call void @_ZN4base8internal8LockImpl6UnlockEv(ptr noundef nonnull align 8 dereferenceable(40) %4)
  ret void
}

; Function Attrs: mustprogress nounwind uwtable
define linkonce_odr void @_ZNK4base4Lock14AssertAcquiredEv(ptr noundef nonnull align 8 dereferenceable(40) %0) #2 comdat align 2 {
  %2 = alloca ptr, align 8
  store ptr %0, ptr %2, align 8, !tbaa !31
  ret void
}

; Function Attrs: mustprogress nounwind uwtable
define linkonce_odr ptr @_ZNSt8_Rb_treeIN4base18StatisticsRecorder9StringKeyESt4pairIKS2_PNS0_13HistogramBaseEESt10_Select1stIS7_ESt4lessIS2_ESaIS7_EE5beginEv(ptr noundef nonnull align 8 dereferenceable(48) %0) #2 comdat align 2 {
  %2 = alloca %"struct.std::_Rb_tree_iterator", align 8
  %3 = alloca ptr, align 8
  store ptr %0, ptr %3, align 8, !tbaa !286
  %4 = load ptr, ptr %3, align 8
  %5 = getelementptr inbounds nuw %"class.std::_Rb_tree", ptr %4, i32 0, i32 0
  %6 = getelementptr inbounds i8, ptr %5, i64 8
  %7 = getelementptr inbounds nuw %"struct.std::_Rb_tree_header", ptr %6, i32 0, i32 0
  %8 = getelementptr inbounds nuw %"struct.std::_Rb_tree_node_base", ptr %7, i32 0, i32 2
  %9 = load ptr, ptr %8, align 8, !tbaa !303
  call void @_ZNSt17_Rb_tree_iteratorISt4pairIKN4base18StatisticsRecorder9StringKeyEPNS1_13HistogramBaseEEEC2EPSt18_Rb_tree_node_base(ptr noundef nonnull align 8 dereferenceable(8) %2, ptr noundef %9) #17
  %10 = getelementptr inbounds nuw %"struct.std::_Rb_tree_iterator", ptr %2, i32 0, i32 0
  %11 = load ptr, ptr %10, align 8
  ret ptr %11
}

; Function Attrs: mustprogress uwtable
define linkonce_odr void @_ZN4base4Lock7AcquireEv(ptr noundef nonnull align 8 dereferenceable(40) %0) #0 comdat align 2 {
  %2 = alloca ptr, align 8
  store ptr %0, ptr %2, align 8, !tbaa !31
  %3 = load ptr, ptr %2, align 8
  %4 = getelementptr inbounds nuw %"class.base::Lock", ptr %3, i32 0, i32 0
  call void @_ZN4base8internal8LockImpl4LockEv(ptr noundef nonnull align 8 dereferenceable(40) %4)
  ret void
}

; Function Attrs: mustprogress nounwind uwtable
define linkonce_odr void @_ZN4base8AutoLockD2Ev(ptr noundef nonnull align 8 dereferenceable(8) %0) unnamed_addr #2 comdat align 2 personality ptr @__gxx_personality_v0 {
  %2 = alloca ptr, align 8
  store ptr %0, ptr %2, align 8, !tbaa !35
  %3 = load ptr, ptr %2, align 8
  %4 = getelementptr inbounds nuw %"class.base::AutoLock", ptr %3, i32 0, i32 0
  %5 = load ptr, ptr %4, align 8, !tbaa !37
  invoke void @_ZNK4base4Lock14AssertAcquiredEv(ptr noundef nonnull align 8 dereferenceable(40) %5)
          to label %6 unwind label %10

6:                                                ; preds = %1
  %7 = getelementptr inbounds nuw %"class.base::AutoLock", ptr %3, i32 0, i32 0
  %8 = load ptr, ptr %7, align 8, !tbaa !37
  invoke void @_ZN4base4Lock7ReleaseEv(ptr noundef nonnull align 8 dereferenceable(40) %8)
          to label %9 unwind label %10

9:                                                ; preds = %6
  ret void

10:                                               ; preds = %6, %1
  %11 = landingpad { ptr, i32 }
          catch ptr null
  %12 = extractvalue { ptr, i32 } %11, 0
  call void @__clang_call_terminate(ptr %12) #18
  unreachable
}

; Function Attrs: mustprogress nounwind uwtable
define linkonce_odr ptr @_ZNSt3mapIN4base18StatisticsRecorder9StringKeyEPNS0_13HistogramBaseESt4lessIS2_ESaISt4pairIKS2_S4_EEE5beginEv(ptr noundef nonnull align 8 dereferenceable(48) %0) #2 comdat align 2 {
  %2 = alloca %"struct.std::_Rb_tree_iterator", align 8
  %3 = alloca ptr, align 8
  store ptr %0, ptr %3, align 8, !tbaa !20
  %4 = load ptr, ptr %3, align 8
  %5 = getelementptr inbounds nuw %"class.std::map", ptr %4, i32 0, i32 0
  %6 = call ptr @_ZNSt8_Rb_treeIN4base18StatisticsRecorder9StringKeyESt4pairIKS2_PNS0_13HistogramBaseEESt10_Select1stIS7_ESt4lessIS2_ESaIS7_EE5beginEv(ptr noundef nonnull align 8 dereferenceable(48) %5) #17
  %7 = getelementptr inbounds nuw %"struct.std::_Rb_tree_iterator", ptr %2, i32 0, i32 0
  store ptr %6, ptr %7, align 8
  %8 = getelementptr inbounds nuw %"struct.std::_Rb_tree_iterator", ptr %2, i32 0, i32 0
  %9 = load ptr, ptr %8, align 8
  ret ptr %9
}

; Function Attrs: mustprogress uwtable
define linkonce_odr void @_ZN4base8AutoLockC2ERNS_4LockE(ptr noundef nonnull align 8 dereferenceable(8) %0, ptr noundef nonnull align 8 dereferenceable(40) %1) unnamed_addr #0 comdat align 2 {
  %3 = alloca ptr, align 8
  %4 = alloca ptr, align 8
  store ptr %0, ptr %3, align 8, !tbaa !35
  store ptr %1, ptr %4, align 8, !tbaa !31
  %5 = load ptr, ptr %3, align 8
  %6 = getelementptr inbounds nuw %"class.base::AutoLock", ptr %5, i32 0, i32 0
  %7 = load ptr, ptr %4, align 8, !tbaa !31
  store ptr %7, ptr %6, align 8, !tbaa !31
  %8 = getelementptr inbounds nuw %"class.base::AutoLock", ptr %5, i32 0, i32 0
  %9 = load ptr, ptr %8, align 8, !tbaa !37
  call void @_ZN4base4Lock7AcquireEv(ptr noundef nonnull align 8 dereferenceable(40) %9)
  ret void
}

; Function Attrs: mustprogress nounwind uwtable
define linkonce_odr void @_ZNSt17_Rb_tree_iteratorISt4pairIKN4base18StatisticsRecorder9StringKeyEPNS1_13HistogramBaseEEEC2Ev(ptr noundef nonnull align 8 dereferenceable(8) %0) unnamed_addr #2 comdat align 2 {
  %2 = alloca ptr, align 8
  store ptr %0, ptr %2, align 8, !tbaa !8
  %3 = load ptr, ptr %2, align 8
  %4 = getelementptr inbounds nuw %"struct.std::_Rb_tree_iterator", ptr %3, i32 0, i32 0
  store ptr null, ptr %4, align 8, !tbaa !29
  ret void
}

; Function Attrs: mustprogress uwtable
define void @_ZN4base18StatisticsRecorder32ImportGlobalPersistentHistogramsEv() #0 align 2 {
  %1 = alloca ptr, align 8
  %2 = load ptr, ptr @_ZN4base18StatisticsRecorder5lock_E, align 8, !tbaa !31
  %3 = icmp eq ptr %2, null
  br i1 %3, label %4, label %5

4:                                                ; preds = %0
  br label %12

5:                                                ; preds = %0
  call void @llvm.lifetime.start.p0(i64 8, ptr %1) #17
  %6 = call noundef ptr @_ZN4base24GlobalHistogramAllocator3GetEv()
  store ptr %6, ptr %1, align 8, !tbaa !147
  %7 = load ptr, ptr %1, align 8, !tbaa !147
  %8 = icmp ne ptr %7, null
  br i1 %8, label %9, label %11

9:                                                ; preds = %5
  %10 = load ptr, ptr %1, align 8, !tbaa !147
  call void @_ZN4base24GlobalHistogramAllocator36ImportHistogramsToStatisticsRecorderEv(ptr noundef nonnull align 8 dereferenceable(192) %10)
  br label %11

11:                                               ; preds = %9, %5
  call void @llvm.lifetime.end.p0(i64 8, ptr %1) #17
  br label %12

12:                                               ; preds = %11, %4
  ret void
}

; Function Attrs: mustprogress uwtable
define void @_ZN4base18StatisticsRecorder5beginEb(ptr dead_on_unwind noalias writable sret(%"class.base::StatisticsRecorder::HistogramIterator") align 8 %0, i1 noundef zeroext %1) #0 align 2 {
  %3 = alloca ptr, align 8
  %4 = alloca i8, align 1
  %5 = alloca %"struct.std::_Rb_tree_iterator", align 8
  %6 = alloca %"class.base::AutoLock", align 8
  %7 = alloca %"struct.std::_Rb_tree_iterator", align 8
  store ptr %0, ptr %3, align 8
  %8 = zext i1 %1 to i8
  store i8 %8, ptr %4, align 1, !tbaa !10
  call void @_ZN4base18StatisticsRecorder32ImportGlobalPersistentHistogramsEv()
  call void @llvm.lifetime.start.p0(i64 8, ptr %5) #17
  call void @_ZNSt17_Rb_tree_iteratorISt4pairIKN4base18StatisticsRecorder9StringKeyEPNS1_13HistogramBaseEEEC2Ev(ptr noundef nonnull align 8 dereferenceable(8) %5) #17
  call void @llvm.lifetime.start.p0(i64 8, ptr %6) #17
  %9 = load ptr, ptr @_ZN4base18StatisticsRecorder5lock_E, align 8, !tbaa !31
  call void @_ZN4base8AutoLockC2ERNS_4LockE(ptr noundef nonnull align 8 dereferenceable(8) %6, ptr noundef nonnull align 8 dereferenceable(40) %9)
  call void @llvm.lifetime.start.p0(i64 8, ptr %7) #17
  %10 = load ptr, ptr @_ZN4base18StatisticsRecorder11histograms_E, align 8, !tbaa !20
  %11 = call ptr @_ZNSt3mapIN4base18StatisticsRecorder9StringKeyEPNS0_13HistogramBaseESt4lessIS2_ESaISt4pairIKS2_S4_EEE5beginEv(ptr noundef nonnull align 8 dereferenceable(48) %10) #17
  %12 = getelementptr inbounds nuw %"struct.std::_Rb_tree_iterator", ptr %7, i32 0, i32 0
  store ptr %11, ptr %12, align 8
  call void @llvm.memcpy.p0.p0.i64(ptr align 8 %5, ptr align 8 %7, i64 8, i1 false), !tbaa.struct !12
  call void @llvm.lifetime.end.p0(i64 8, ptr %7) #17
  call void @_ZN4base8AutoLockD2Ev(ptr noundef nonnull align 8 dereferenceable(8) %6) #17
  call void @llvm.lifetime.end.p0(i64 8, ptr %6) #17
  %13 = load i8, ptr %4, align 1, !tbaa !10, !range !15, !noundef !16
  %14 = trunc i8 %13 to i1
  call void @_ZN4base18StatisticsRecorder17HistogramIteratorC1ERKSt17_Rb_tree_iteratorISt4pairIKNS0_9StringKeyEPNS_13HistogramBaseEEEb(ptr noundef nonnull align 8 dereferenceable(9) %0, ptr noundef nonnull align 8 dereferenceable(8) %5, i1 noundef zeroext %14)
  call void @llvm.lifetime.end.p0(i64 8, ptr %5) #17
  ret void
}