; Function Attrs: mustprogress uwtable
define void @_ZN4base18StatisticsRecorder5beginEb(ptr dead_on_unwind noalias writable sret(%"class.base::StatisticsRecorder::HistogramIterator") align 8 %0, i1 noundef zeroext %1) local_unnamed_addr #0 align 2 personality ptr @__gxx_personality_v0 {
  %3 = alloca %"struct.std::_Rb_tree_iterator", align 8
  %4 = load ptr, ptr @_ZN4base18StatisticsRecorder5lock_E, align 8, !tbaa !26
  %5 = icmp eq ptr %4, null
  br i1 %5, label %_ZN4base18StatisticsRecorder32ImportGlobalPersistentHistogramsEv.exit, label %6

6:                                                ; preds = %2
  %7 = tail call noundef ptr @_ZN4base24GlobalHistogramAllocator3GetEv()
  %.not.i = icmp eq ptr %7, null
  br i1 %.not.i, label %_ZN4base18StatisticsRecorder32ImportGlobalPersistentHistogramsEv.exit, label %8

8:                                                ; preds = %6
  tail call void @_ZN4base24GlobalHistogramAllocator36ImportHistogramsToStatisticsRecorderEv(ptr noundef nonnull align 8 dereferenceable(192) %7)
  br label %_ZN4base18StatisticsRecorder32ImportGlobalPersistentHistogramsEv.exit

_ZN4base18StatisticsRecorder32ImportGlobalPersistentHistogramsEv.exit: ; preds = %2, %6, %8
  call void @llvm.lifetime.start.p0(i64 8, ptr nonnull %3) #25
  %9 = load ptr, ptr @_ZN4base18StatisticsRecorder5lock_E, align 8, !tbaa !26
  tail call void @_ZN4base8internal8LockImpl4LockEv(ptr noundef nonnull align 8 dereferenceable(40) %9)
  %10 = load ptr, ptr @_ZN4base18StatisticsRecorder11histograms_E, align 8, !tbaa !12
  %11 = getelementptr inbounds nuw i8, ptr %10, i64 24
  %12 = load ptr, ptr %11, align 8, !tbaa !94
  store ptr %12, ptr %3, align 8, !tbaa !3
  invoke void @_ZN4base8internal8LockImpl6UnlockEv(ptr noundef nonnull align 8 dereferenceable(40) %9)
          to label %_ZN4base8AutoLockD2Ev.exit unwind label %13

13:                                               ; preds = %_ZN4base18StatisticsRecorder32ImportGlobalPersistentHistogramsEv.exit
  %14 = landingpad { ptr, i32 }
          catch ptr null
  %15 = extractvalue { ptr, i32 } %14, 0
  tail call void @__clang_call_terminate(ptr %15) #23
  unreachable

_ZN4base8AutoLockD2Ev.exit:                       ; preds = %_ZN4base18StatisticsRecorder32ImportGlobalPersistentHistogramsEv.exit
  call void @_ZN4base18StatisticsRecorder17HistogramIteratorC1ERKSt17_Rb_tree_iteratorISt4pairIKNS0_9StringKeyEPNS_13HistogramBaseEEEb(ptr noundef nonnull align 8 dereferenceable(9) %0, ptr noundef nonnull align 8 dereferenceable(8) %3, i1 noundef zeroext %1)
  call void @llvm.lifetime.end.p0(i64 8, ptr nonnull %3) #25
  ret void
}